target datalayout = "e-m:e-p270:32:32-p271:32:32-p272:64:64-i64:64-i128:128-f80:128-n8:16:32:64-S128"
target triple = "x86_64-pc-linux-gnu"

@MyReplicationSlot = dso_local global ptr null, align 8

; Function Attrs: nounwind uwtable
define internal void @ReplicationSlotShmemExit(i32 noundef %0, i64 noundef %1) #0 {
  %3 = alloca i32, align 4
  %4 = alloca i64, align 8
  store i32 %0, ptr %3, align 4
  store i64 %1, ptr %4, align 8
  %5 = load ptr, ptr @MyReplicationSlot, align 8
  %6 = icmp ne ptr %5, null
  br i1 %6, label %7, label %8

7:                                                ; preds = %2
  call void @ReplicationSlotRelease()
  br label %8

8:                                                ; preds = %7, %2
  call void @ReplicationSlotCleanup(i1 noundef zeroext false)
  ret void
}