; Function Attrs: nounwind uwtable
define internal void @ReplicationSlotShmemExit(i32 %0, i64 %1) #0 {
  %3 = load ptr, ptr @MyReplicationSlot, align 8
  %.not = icmp eq ptr %3, null
  br i1 %.not, label %5, label %4

4:                                                ; preds = %2
  tail call void @ReplicationSlotRelease()
  br label %5

5:                                                ; preds = %4, %2
  tail call void @ReplicationSlotCleanup(i1 noundef zeroext false)
  ret void
}